target datalayout = "e-m:e-p270:32:32-p271:32:32-p272:64:64-i64:64-i128:128-f80:128-n8:16:32:64-S128"
target triple = "x86_64-pc-linux-gnu"

%struct._value_string_ext = type { ptr, i32, i32, ptr, ptr }
%struct.charset_encoding_t = type { ptr, i32 }

@mysql_collation_vals_ext = internal global %struct._value_string_ext { ptr @_try_val_to_str_ext_init, i32 0, i32 286, ptr @mysql_collation_vals, ptr @.str.648 }, align 8
@mariadb_collation_vals_ext = internal global %struct._value_string_ext { ptr @_try_val_to_str_ext_init, i32 0, i32 322, ptr @mariadb_collation_vals, ptr @.str.936 }, align 8
@.str.1249 = private unnamed_addr constant [2 x i8] c" \00", align 1

; Function Attrs: nounwind null_pointer_is_valid sspstrong uwtable
define internal i32 @charset_to_encoding(ptr noundef %0) #6 {
  %2 = alloca i32, align 4
  %3 = alloca ptr, align 8
  %4 = alloca i64, align 8
  %5 = alloca i64, align 8
  %6 = alloca i32, align 4
  store ptr %0, ptr %3, align 8
  %7 = load ptr, ptr %3, align 8
  %8 = icmp eq ptr %7, null
  br i1 %8, label %9, label %10

9:                                                ; preds = %1
  store i32 2, ptr %2, align 4
  br label %39

10:                                               ; preds = %1
  call void @llvm.lifetime.start.p0(i64 8, ptr %4) #11
  %11 = load ptr, ptr %3, align 8
  %12 = call i64 @strcspn(ptr noundef %11, ptr noundef @.str.1249) #15
  store i64 %12, ptr %4, align 8
  call void @llvm.lifetime.start.p0(i64 8, ptr %5) #11
  store i64 0, ptr %5, align 8
  br label %13

13:                                               ; preds = %32, %10
  %14 = load i64, ptr %5, align 8
  %15 = icmp ult i64 %14, 23
  br i1 %15, label %17, label %16

16:                                               ; preds = %13
  store i32 2, ptr %6, align 4
  br label %35

17:                                               ; preds = %13
  %18 = load ptr, ptr %3, align 8
  %19 = load i64, ptr %5, align 8
  %20 = getelementptr [23 x %struct.charset_encoding_t], ptr @charset_encoding_array, i64 0, i64 %19
  %21 = getelementptr inbounds nuw %struct.charset_encoding_t, ptr %20, i32 0, i32 0
  %22 = load ptr, ptr %21, align 16
  %23 = load i64, ptr %4, align 8
  %24 = call i32 @strncmp(ptr noundef %18, ptr noundef %22, i64 noundef %23) #15
  %25 = icmp eq i32 %24, 0
  br i1 %25, label %26, label %31

26:                                               ; preds = %17
  %27 = load i64, ptr %5, align 8
  %28 = getelementptr [23 x %struct.charset_encoding_t], ptr @charset_encoding_array, i64 0, i64 %27
  %29 = getelementptr inbounds nuw %struct.charset_encoding_t, ptr %28, i32 0, i32 1
  %30 = load i32, ptr %29, align 8
  store i32 %30, ptr %2, align 4
  store i32 1, ptr %6, align 4
  br label %35

31:                                               ; preds = %17
  br label %32

32:                                               ; preds = %31
  %33 = load i64, ptr %5, align 8
  %34 = add i64 %33, 1
  store i64 %34, ptr %5, align 8
  br label %13, !llvm.loop !23

35:                                               ; preds = %26, %16
  call void @llvm.lifetime.end.p0(i64 8, ptr %5) #11
  %36 = load i32, ptr %6, align 4
  switch i32 %36, label %38 [
    i32 2, label %37
  ]

37:                                               ; preds = %35
  store i32 2, ptr %2, align 4
  store i32 1, ptr %6, align 4
  br label %38

38:                                               ; preds = %37, %35
  call void @llvm.lifetime.end.p0(i64 8, ptr %4) #11
  br label %39

39:                                               ; preds = %38, %9
  %40 = load i32, ptr %2, align 4
  ret i32 %40
}

; Function Attrs: null_pointer_is_valid sspstrong uwtable
define internal i32 @collation_to_encoding(i32 noundef %0, i1 noundef zeroext %1) #0 {
  %3 = alloca i32, align 4
  %4 = alloca i8, align 1
  %5 = alloca ptr, align 8
  store i32 %0, ptr %3, align 4
  %6 = zext i1 %1 to i8
  store i8 %6, ptr %4, align 1
  call void @llvm.lifetime.start.p0(i64 8, ptr %5) #11
  %7 = load i32, ptr %3, align 4
  %8 = load i8, ptr %4, align 1, !range !6, !noundef !7
  %9 = trunc i8 %8 to i1
  %10 = select i1 %9, ptr @mariadb_collation_vals_ext, ptr @mysql_collation_vals_ext
  %11 = call ptr @try_val_to_str_ext(i32 noundef %7, ptr noundef %10)
  store ptr %11, ptr %5, align 8
  %12 = load ptr, ptr %5, align 8
  %13 = call i32 @charset_to_encoding(ptr noundef %12)
  call void @llvm.lifetime.end.p0(i64 8, ptr %5) #11
  ret i32 %13
}