; Function Attrs: null_pointer_is_valid sspstrong uwtable
define internal fastcc i32 @collation_to_encoding(i32 noundef %0, i1 noundef zeroext %1) unnamed_addr #0 {
  %3 = select i1 %1, ptr @mariadb_collation_vals_ext, ptr @mysql_collation_vals_ext
  %4 = tail call ptr @try_val_to_str_ext(i32 noundef %0, ptr noundef nonnull %3)
  %5 = icmp eq ptr %4, null
  br i1 %5, label %charset_to_encoding.exit, label %6

6:                                                ; preds = %2
  %7 = tail call i64 @strcspn(ptr noundef nonnull readonly %4, ptr noundef nonnull @.str.1249) #14
  br label %10

8:                                                ; preds = %10
  %9 = add nuw nsw i64 %.0912.i, 1
  %exitcond.i = icmp eq i64 %9, 23
  br i1 %exitcond.i, label %charset_to_encoding.exit, label %10, !llvm.loop !14

10:                                               ; preds = %8, %6
  %.0912.i = phi i64 [ 0, %6 ], [ %9, %8 ]
  %11 = getelementptr [23 x %struct.charset_encoding_t], ptr @charset_encoding_array, i64 0, i64 %.0912.i
  %12 = load ptr, ptr %11, align 16
  %13 = tail call i32 @strncmp(ptr noundef nonnull readonly %4, ptr noundef %12, i64 noundef %7) #14
  %14 = icmp eq i32 %13, 0
  br i1 %14, label %15, label %8

15:                                               ; preds = %10
  %16 = getelementptr inbounds nuw i8, ptr %11, i64 8
  %17 = load i32, ptr %16, align 8
  br label %charset_to_encoding.exit

charset_to_encoding.exit:                         ; preds = %8, %2, %15
  %.010.i = phi i32 [ 2, %2 ], [ %17, %15 ], [ 2, %8 ]
  ret i32 %.010.i
}